; Function Attrs: mustprogress uwtable
define hidden void @_ZN4cvc58internal8TCtxNode15computeNodeHashENS0_12NodeTemplateILb1EEEj(ptr dead_on_unwind noalias writable sret(%"class.cvc5::internal::NodeTemplate") align 8 %0, ptr noundef readonly captures(none) %1, i32 noundef %2) local_unnamed_addr #3 align 2 personality ptr @__gxx_personality_v0 {
  %4 = alloca %"class.cvc5::internal::NodeBuilder", align 8
  %5 = alloca %"class.cvc5::internal::NodeTemplate.0", align 8
  %6 = alloca %"class.cvc5::internal::NodeTemplate.0", align 8
  %7 = alloca %"class.cvc5::internal::NodeTemplate", align 8
  %8 = alloca %"class.cvc5::internal::Rational", align 8
  %9 = tail call noundef ptr @_ZN4cvc58internal11NodeManager9currentNMEv()
  %10 = load ptr, ptr %1, align 8, !tbaa !3
  call void @llvm.lifetime.start.p0(i64 8, ptr nonnull %7) #18
  call void @llvm.lifetime.start.p0(i64 32, ptr nonnull %8) #18
  call void @_ZN4cvc58internal8RationalC2Ej(ptr noundef nonnull align 8 dereferenceable(32) %8, i32 noundef %2)
  invoke void @_ZN4cvc58internal11NodeManager10mkConstIntERKNS0_8RationalE(ptr dead_on_unwind nonnull writable sret(%"class.cvc5::internal::NodeTemplate") align 8 %7, ptr noundef nonnull align 8 dereferenceable(3560) %9, ptr noundef nonnull align 8 dereferenceable(32) %8)
          to label %11 unwind label %43

11:                                               ; preds = %3
  %12 = load ptr, ptr %7, align 8, !tbaa !3
  call void @llvm.lifetime.start.p0(i64 8, ptr nonnull %5)
  call void @llvm.lifetime.start.p0(i64 8, ptr nonnull %6)
  call void @llvm.lifetime.start.p0(i64 128, ptr nonnull %4) #18, !noalias !24
  %13 = getelementptr inbounds nuw i8, ptr %10, i64 16
  %14 = load ptr, ptr %13, align 8, !tbaa !27, !noalias !24
  invoke void @_ZN4cvc58internal11NodeBuilderC1EPNS0_11NodeManagerENS0_4kind6Kind_tE(ptr noundef nonnull align 8 dereferenceable(124) %4, ptr noundef %14, i32 noundef 11)
          to label %.noexc unwind label %45

.noexc:                                           ; preds = %11
  store ptr %10, ptr %5, align 8, !tbaa !22, !noalias !24
  %15 = invoke noundef nonnull align 8 dereferenceable(124) ptr @_ZN4cvc58internal11NodeBuilderlsENS0_12NodeTemplateILb0EEE(ptr noundef nonnull align 8 dereferenceable(124) %4, ptr noundef nonnull %5)
          to label %16 unwind label %21, !noalias !24

16:                                               ; preds = %.noexc
  store ptr %12, ptr %6, align 8, !tbaa !22, !noalias !24
  %17 = invoke noundef nonnull align 8 dereferenceable(124) ptr @_ZN4cvc58internal11NodeBuilderlsENS0_12NodeTemplateILb0EEE(ptr noundef nonnull align 8 dereferenceable(124) %15, ptr noundef nonnull %6)
          to label %18 unwind label %23, !noalias !24

18:                                               ; preds = %16
  invoke void @_ZN4cvc58internal11NodeBuilder13constructNodeEv(ptr dead_on_unwind writable sret(%"class.cvc5::internal::NodeTemplate") align 8 %0, ptr noundef nonnull align 8 dereferenceable(124) %4)
          to label %26 unwind label %19

19:                                               ; preds = %18
  %20 = landingpad { ptr, i32 }
          cleanup
  br label %25

21:                                               ; preds = %.noexc
  %22 = landingpad { ptr, i32 }
          cleanup
  br label %25

23:                                               ; preds = %16
  %24 = landingpad { ptr, i32 }
          cleanup
  br label %25

25:                                               ; preds = %23, %21, %19
  %.pn5.i = phi { ptr, i32 } [ %20, %19 ], [ %24, %23 ], [ %22, %21 ]
  call void @_ZN4cvc58internal11NodeBuilderD1Ev(ptr noundef nonnull align 8 dereferenceable(124) %4) #18
  call void @llvm.lifetime.end.p0(i64 128, ptr nonnull %4) #18, !noalias !24
  br label %.body

26:                                               ; preds = %18
  call void @_ZN4cvc58internal11NodeBuilderD1Ev(ptr noundef nonnull align 8 dereferenceable(124) %4) #18
  call void @llvm.lifetime.end.p0(i64 128, ptr nonnull %4) #18, !noalias !24
  call void @llvm.lifetime.end.p0(i64 8, ptr nonnull %5)
  call void @llvm.lifetime.end.p0(i64 8, ptr nonnull %6)
  %27 = load ptr, ptr %7, align 8, !tbaa !3
  %28 = load i64, ptr %27, align 8
  %29 = and i64 %28, 1152920405095219200
  %.not.i.i = icmp eq i64 %29, 1152920405095219200
  br i1 %.not.i.i, label %_ZN4cvc58internal12NodeTemplateILb1EED2Ev.exit, label %30, !prof !10

30:                                               ; preds = %26
  %31 = add i64 %28, 1152920405095219200
  %32 = and i64 %31, 1152920405095219200
  %33 = and i64 %28, -1152920405095219201
  %34 = or disjoint i64 %32, %33
  store i64 %34, ptr %27, align 8
  %35 = icmp eq i64 %32, 0
  br i1 %35, label %36, label %_ZN4cvc58internal12NodeTemplateILb1EED2Ev.exit, !prof !10

36:                                               ; preds = %30
  invoke void @_ZN4cvc58internal4expr9NodeValue15markForDeletionEv(ptr noundef nonnull align 8 dereferenceable(24) %27)
          to label %_ZN4cvc58internal12NodeTemplateILb1EED2Ev.exit unwind label %37

37:                                               ; preds = %36
  %38 = landingpad { ptr, i32 }
          catch ptr null
  %39 = extractvalue { ptr, i32 } %38, 0
  call void @__clang_call_terminate(ptr %39) #19
  unreachable

_ZN4cvc58internal12NodeTemplateILb1EED2Ev.exit:   ; preds = %26, %30, %36
  invoke void @__gmpq_clear(ptr noundef nonnull align 8 dereferenceable(32) %8)
          to label %_ZN4cvc58internal8RationalD2Ev.exit unwind label %40

40:                                               ; preds = %_ZN4cvc58internal12NodeTemplateILb1EED2Ev.exit
  %41 = landingpad { ptr, i32 }
          catch ptr null
  %42 = extractvalue { ptr, i32 } %41, 0
  call void @__clang_call_terminate(ptr %42) #19
  unreachable

_ZN4cvc58internal8RationalD2Ev.exit:              ; preds = %_ZN4cvc58internal12NodeTemplateILb1EED2Ev.exit
  call void @llvm.lifetime.end.p0(i64 32, ptr nonnull %8) #18
  call void @llvm.lifetime.end.p0(i64 8, ptr nonnull %7) #18
  ret void

43:                                               ; preds = %3
  %44 = landingpad { ptr, i32 }
          cleanup
  br label %47

45:                                               ; preds = %11
  %46 = landingpad { ptr, i32 }
          cleanup
  br label %.body

.body:                                            ; preds = %25, %45
  %eh.lpad-body = phi { ptr, i32 } [ %46, %45 ], [ %.pn5.i, %25 ]
  call void @_ZN4cvc58internal12NodeTemplateILb1EED2Ev(ptr noundef nonnull align 8 dereferenceable(8) %7) #18
  br label %47

47:                                               ; preds = %.body, %43
  %.pn = phi { ptr, i32 } [ %eh.lpad-body, %.body ], [ %44, %43 ]
  invoke void @__gmpq_clear(ptr noundef nonnull align 8 dereferenceable(32) %8)
          to label %_ZN4cvc58internal8RationalD2Ev.exit7 unwind label %48

48:                                               ; preds = %47
  %49 = landingpad { ptr, i32 }
          catch ptr null
  %50 = extractvalue { ptr, i32 } %49, 0
  call void @__clang_call_terminate(ptr %50) #19
  unreachable

_ZN4cvc58internal8RationalD2Ev.exit7:             ; preds = %47
  call void @llvm.lifetime.end.p0(i64 32, ptr nonnull %8) #18
  call void @llvm.lifetime.end.p0(i64 8, ptr nonnull %7) #18
  resume { ptr, i32 } %.pn
}